
interface-serial.elf:     file format elf32-avr

Sections:
Idx Name          Size      VMA       LMA       File off  Algn
  0 .data         00000000  00800100  00800100  0000029c  2**0
                  CONTENTS, ALLOC, LOAD, DATA
  1 .text         00000228  00000000  00000000  00000074  2**1
                  CONTENTS, ALLOC, LOAD, READONLY, CODE
  2 .bss          00000001  00800100  00800100  0000029c  2**0
                  ALLOC
  3 .comment      00000030  00000000  00000000  0000029c  2**0
                  CONTENTS, READONLY
  4 .note.gnu.avr.deviceinfo 00000040  00000000  00000000  000002cc  2**2
                  CONTENTS, READONLY
  5 .debug_aranges 00000058  00000000  00000000  0000030c  2**0
                  CONTENTS, READONLY, DEBUGGING
  6 .debug_info   000008d1  00000000  00000000  00000364  2**0
                  CONTENTS, READONLY, DEBUGGING
  7 .debug_abbrev 00000702  00000000  00000000  00000c35  2**0
                  CONTENTS, READONLY, DEBUGGING
  8 .debug_line   000003a3  00000000  00000000  00001337  2**0
                  CONTENTS, READONLY, DEBUGGING
  9 .debug_frame  0000016c  00000000  00000000  000016dc  2**2
                  CONTENTS, READONLY, DEBUGGING
 10 .debug_str    0000041a  00000000  00000000  00001848  2**0
                  CONTENTS, READONLY, DEBUGGING
 11 .debug_loc    00000355  00000000  00000000  00001c62  2**0
                  CONTENTS, READONLY, DEBUGGING
 12 .debug_ranges 00000048  00000000  00000000  00001fb7  2**0
                  CONTENTS, READONLY, DEBUGGING

Disassembly of section .text:

00000000 <__vectors>:
   0:	0c 94 34 00 	jmp	0x68	; 0x68 <__ctors_end>
   4:	0c 94 b0 00 	jmp	0x160	; 0x160 <__vector_1>
   8:	0c 94 d5 00 	jmp	0x1aa	; 0x1aa <__vector_2>
   c:	0c 94 46 00 	jmp	0x8c	; 0x8c <__bad_interrupt>
  10:	0c 94 46 00 	jmp	0x8c	; 0x8c <__bad_interrupt>
  14:	0c 94 46 00 	jmp	0x8c	; 0x8c <__bad_interrupt>
  18:	0c 94 46 00 	jmp	0x8c	; 0x8c <__bad_interrupt>
  1c:	0c 94 46 00 	jmp	0x8c	; 0x8c <__bad_interrupt>
  20:	0c 94 46 00 	jmp	0x8c	; 0x8c <__bad_interrupt>
  24:	0c 94 46 00 	jmp	0x8c	; 0x8c <__bad_interrupt>
  28:	0c 94 46 00 	jmp	0x8c	; 0x8c <__bad_interrupt>
  2c:	0c 94 46 00 	jmp	0x8c	; 0x8c <__bad_interrupt>
  30:	0c 94 46 00 	jmp	0x8c	; 0x8c <__bad_interrupt>
  34:	0c 94 46 00 	jmp	0x8c	; 0x8c <__bad_interrupt>
  38:	0c 94 46 00 	jmp	0x8c	; 0x8c <__bad_interrupt>
  3c:	0c 94 46 00 	jmp	0x8c	; 0x8c <__bad_interrupt>
  40:	0c 94 46 00 	jmp	0x8c	; 0x8c <__bad_interrupt>
  44:	0c 94 46 00 	jmp	0x8c	; 0x8c <__bad_interrupt>
  48:	0c 94 82 00 	jmp	0x104	; 0x104 <__vector_18>
  4c:	0c 94 46 00 	jmp	0x8c	; 0x8c <__bad_interrupt>
  50:	0c 94 46 00 	jmp	0x8c	; 0x8c <__bad_interrupt>
  54:	0c 94 46 00 	jmp	0x8c	; 0x8c <__bad_interrupt>
  58:	0c 94 46 00 	jmp	0x8c	; 0x8c <__bad_interrupt>
  5c:	0c 94 46 00 	jmp	0x8c	; 0x8c <__bad_interrupt>
  60:	0c 94 46 00 	jmp	0x8c	; 0x8c <__bad_interrupt>
  64:	0c 94 46 00 	jmp	0x8c	; 0x8c <__bad_interrupt>

00000068 <__ctors_end>:
  68:	11 24       	eor	r1, r1
  6a:	1f be       	out	0x3f, r1	; 63
  6c:	cf ef       	ldi	r28, 0xFF	; 255
  6e:	d8 e0       	ldi	r29, 0x08	; 8
  70:	de bf       	out	0x3e, r29	; 62
  72:	cd bf       	out	0x3d, r28	; 61

00000074 <__do_clear_bss>:
  74:	21 e0       	ldi	r18, 0x01	; 1
  76:	a0 e0       	ldi	r26, 0x00	; 0
  78:	b1 e0       	ldi	r27, 0x01	; 1
  7a:	01 c0       	rjmp	.+2      	; 0x7e <.do_clear_bss_start>

0000007c <.do_clear_bss_loop>:
  7c:	1d 92       	st	X+, r1

0000007e <.do_clear_bss_start>:
  7e:	a1 30       	cpi	r26, 0x01	; 1
  80:	b2 07       	cpc	r27, r18
  82:	e1 f7       	brne	.-8      	; 0x7c <.do_clear_bss_loop>
  84:	0e 94 fa 00 	call	0x1f4	; 0x1f4 <main>
  88:	0c 94 12 01 	jmp	0x224	; 0x224 <_exit>

0000008c <__bad_interrupt>:
  8c:	0c 94 00 00 	jmp	0	; 0x0 <__vectors>

00000090 <enviaDado>:
#include <avr/interrupt.h>
#include <string.h>

void enviaDado(char dado)
{
	PORTB = dado;
  90:	85 b9       	out	0x05, r24	; 5
	PORTC |= (0x01);
  92:	40 9a       	sbi	0x08, 0	; 8
	PORTC &= ~(0x02);
  94:	41 98       	cbi	0x08, 1	; 8
	PORTC |= (0x04);
  96:	42 9a       	sbi	0x08, 2	; 8
	#else
		//round up by default
		__ticks_dc = (uint32_t)(ceil(fabs(__tmp)));
	#endif

	__builtin_avr_delay_cycles(__ticks_dc);
  98:	8f e3       	ldi	r24, 0x3F	; 63
  9a:	9c e9       	ldi	r25, 0x9C	; 156
  9c:	01 97       	sbiw	r24, 0x01	; 1
  9e:	f1 f7       	brne	.-4      	; 0x9c <enviaDado+0xc>
  a0:	00 c0       	rjmp	.+0      	; 0xa2 <enviaDado+0x12>
  a2:	00 00       	nop
	_delay_ms(20);
	PORTC &= ~(0x04);	
  a4:	42 98       	cbi	0x08, 2	; 8
  a6:	08 95       	ret

000000a8 <enviaComando>:
}

void enviaComando(char comando)
{
	PORTB = comando;
  a8:	85 b9       	out	0x05, r24	; 5
	PORTC &= ~(0x01);
  aa:	40 98       	cbi	0x08, 0	; 8
	PORTC &= ~(0x02);
  ac:	41 98       	cbi	0x08, 1	; 8
	PORTC |= (0x04);
  ae:	42 9a       	sbi	0x08, 2	; 8
  b0:	8f e1       	ldi	r24, 0x1F	; 31
  b2:	9e e4       	ldi	r25, 0x4E	; 78
  b4:	01 97       	sbiw	r24, 0x01	; 1
  b6:	f1 f7       	brne	.-4      	; 0xb4 <enviaComando+0xc>
  b8:	00 c0       	rjmp	.+0      	; 0xba <enviaComando+0x12>
  ba:	00 00       	nop
	_delay_ms(10);
	PORTC &= ~(0x04);
  bc:	42 98       	cbi	0x08, 2	; 8
  be:	08 95       	ret

000000c0 <inicializa>:
}

void inicializa()
{
	enviaComando(0x38);
  c0:	88 e3       	ldi	r24, 0x38	; 56
  c2:	0e 94 54 00 	call	0xa8	; 0xa8 <enviaComando>
	enviaComando(0x0E);
  c6:	8e e0       	ldi	r24, 0x0E	; 14
  c8:	0e 94 54 00 	call	0xa8	; 0xa8 <enviaComando>
	enviaComando(0x06);
  cc:	86 e0       	ldi	r24, 0x06	; 6
  ce:	0e 94 54 00 	call	0xa8	; 0xa8 <enviaComando>
	enviaComando(0x01);
  d2:	81 e0       	ldi	r24, 0x01	; 1
  d4:	0e 94 54 00 	call	0xa8	; 0xa8 <enviaComando>
  d8:	08 95       	ret

000000da <USART_init>:
}

void USART_init(unsigned int ubrr)
{	
	UBRR0H = (unsigned char)(ubrr>>8);
  da:	90 93 c5 00 	sts	0x00C5, r25	; 0x8000c5 <__TEXT_REGION_LENGTH__+0x7e00c5>
	UBRR0L = (unsigned char)ubrr;
  de:	80 93 c4 00 	sts	0x00C4, r24	; 0x8000c4 <__TEXT_REGION_LENGTH__+0x7e00c4>
	UCSR0A |= (1 << U2X0);
  e2:	e0 ec       	ldi	r30, 0xC0	; 192
  e4:	f0 e0       	ldi	r31, 0x00	; 0
  e6:	80 81       	ld	r24, Z
  e8:	82 60       	ori	r24, 0x02	; 2
  ea:	80 83       	st	Z, r24
	UCSR0B |= (1 << RXEN0)|(1 << TXEN0);
  ec:	e1 ec       	ldi	r30, 0xC1	; 193
  ee:	f0 e0       	ldi	r31, 0x00	; 0
  f0:	80 81       	ld	r24, Z
  f2:	88 61       	ori	r24, 0x18	; 24
  f4:	80 83       	st	Z, r24
	UCSR0B |= (1 << RXCIE0);
  f6:	80 81       	ld	r24, Z
  f8:	80 68       	ori	r24, 0x80	; 128
  fa:	80 83       	st	Z, r24
	UCSR0C = 0x2C; //7-bits paridade:par stopbit:2
  fc:	8c e2       	ldi	r24, 0x2C	; 44
  fe:	80 93 c2 00 	sts	0x00C2, r24	; 0x8000c2 <__TEXT_REGION_LENGTH__+0x7e00c2>
 102:	08 95       	ret

00000104 <__vector_18>:
}

volatile char byteRecebido;

ISR(USART_RX_vect)
{
 104:	1f 92       	push	r1
 106:	0f 92       	push	r0
 108:	0f b6       	in	r0, 0x3f	; 63
 10a:	0f 92       	push	r0
 10c:	11 24       	eor	r1, r1
 10e:	2f 93       	push	r18
 110:	3f 93       	push	r19
 112:	4f 93       	push	r20
 114:	5f 93       	push	r21
 116:	6f 93       	push	r22
 118:	7f 93       	push	r23
 11a:	8f 93       	push	r24
 11c:	9f 93       	push	r25
 11e:	af 93       	push	r26
 120:	bf 93       	push	r27
 122:	ef 93       	push	r30
 124:	ff 93       	push	r31
	byteRecebido = UDR0;
 126:	e6 ec       	ldi	r30, 0xC6	; 198
 128:	f0 e0       	ldi	r31, 0x00	; 0
 12a:	80 81       	ld	r24, Z
 12c:	80 93 00 01 	sts	0x0100, r24	; 0x800100 <_edata>
	UDR0 = byteRecebido;
 130:	80 91 00 01 	lds	r24, 0x0100	; 0x800100 <_edata>
 134:	80 83       	st	Z, r24
	enviaDado(byteRecebido);
 136:	80 91 00 01 	lds	r24, 0x0100	; 0x800100 <_edata>
 13a:	0e 94 48 00 	call	0x90	; 0x90 <enviaDado>
}
 13e:	ff 91       	pop	r31
 140:	ef 91       	pop	r30
 142:	bf 91       	pop	r27
 144:	af 91       	pop	r26
 146:	9f 91       	pop	r25
 148:	8f 91       	pop	r24
 14a:	7f 91       	pop	r23
 14c:	6f 91       	pop	r22
 14e:	5f 91       	pop	r21
 150:	4f 91       	pop	r20
 152:	3f 91       	pop	r19
 154:	2f 91       	pop	r18
 156:	0f 90       	pop	r0
 158:	0f be       	out	0x3f, r0	; 63
 15a:	0f 90       	pop	r0
 15c:	1f 90       	pop	r1
 15e:	18 95       	reti

00000160 <__vector_1>:

ISR(INT0_vect)
{
 160:	1f 92       	push	r1
 162:	0f 92       	push	r0
 164:	0f b6       	in	r0, 0x3f	; 63
 166:	0f 92       	push	r0
 168:	11 24       	eor	r1, r1
 16a:	2f 93       	push	r18
 16c:	3f 93       	push	r19
 16e:	4f 93       	push	r20
 170:	5f 93       	push	r21
 172:	6f 93       	push	r22
 174:	7f 93       	push	r23
 176:	8f 93       	push	r24
 178:	9f 93       	push	r25
 17a:	af 93       	push	r26
 17c:	bf 93       	push	r27
 17e:	ef 93       	push	r30
 180:	ff 93       	push	r31
	enviaDado('A');
 182:	81 e4       	ldi	r24, 0x41	; 65
 184:	0e 94 48 00 	call	0x90	; 0x90 <enviaDado>
}
 188:	ff 91       	pop	r31
 18a:	ef 91       	pop	r30
 18c:	bf 91       	pop	r27
 18e:	af 91       	pop	r26
 190:	9f 91       	pop	r25
 192:	8f 91       	pop	r24
 194:	7f 91       	pop	r23
 196:	6f 91       	pop	r22
 198:	5f 91       	pop	r21
 19a:	4f 91       	pop	r20
 19c:	3f 91       	pop	r19
 19e:	2f 91       	pop	r18
 1a0:	0f 90       	pop	r0
 1a2:	0f be       	out	0x3f, r0	; 63
 1a4:	0f 90       	pop	r0
 1a6:	1f 90       	pop	r1
 1a8:	18 95       	reti

000001aa <__vector_2>:

ISR(INT1_vect)
{
 1aa:	1f 92       	push	r1
 1ac:	0f 92       	push	r0
 1ae:	0f b6       	in	r0, 0x3f	; 63
 1b0:	0f 92       	push	r0
 1b2:	11 24       	eor	r1, r1
 1b4:	2f 93       	push	r18
 1b6:	3f 93       	push	r19
 1b8:	4f 93       	push	r20
 1ba:	5f 93       	push	r21
 1bc:	6f 93       	push	r22
 1be:	7f 93       	push	r23
 1c0:	8f 93       	push	r24
 1c2:	9f 93       	push	r25
 1c4:	af 93       	push	r26
 1c6:	bf 93       	push	r27
 1c8:	ef 93       	push	r30
 1ca:	ff 93       	push	r31
	enviaDado('B');
 1cc:	82 e4       	ldi	r24, 0x42	; 66
 1ce:	0e 94 48 00 	call	0x90	; 0x90 <enviaDado>
}
 1d2:	ff 91       	pop	r31
 1d4:	ef 91       	pop	r30
 1d6:	bf 91       	pop	r27
 1d8:	af 91       	pop	r26
 1da:	9f 91       	pop	r25
 1dc:	8f 91       	pop	r24
 1de:	7f 91       	pop	r23
 1e0:	6f 91       	pop	r22
 1e2:	5f 91       	pop	r21
 1e4:	4f 91       	pop	r20
 1e6:	3f 91       	pop	r19
 1e8:	2f 91       	pop	r18
 1ea:	0f 90       	pop	r0
 1ec:	0f be       	out	0x3f, r0	; 63
 1ee:	0f 90       	pop	r0
 1f0:	1f 90       	pop	r1
 1f2:	18 95       	reti

000001f4 <main>:

int main(void)
{
	DDRD = 0x00;
 1f4:	1a b8       	out	0x0a, r1	; 10
	PORTD = 0x0c;
 1f6:	8c e0       	ldi	r24, 0x0C	; 12
 1f8:	8b b9       	out	0x0b, r24	; 11
	USART_init(BRC);
 1fa:	81 e2       	ldi	r24, 0x21	; 33
 1fc:	90 e0       	ldi	r25, 0x00	; 0
 1fe:	0e 94 6d 00 	call	0xda	; 0xda <USART_init>
	DDRB = 0xff;
 202:	8f ef       	ldi	r24, 0xFF	; 255
 204:	84 b9       	out	0x04, r24	; 4
	DDRC = 0x07;
 206:	97 e0       	ldi	r25, 0x07	; 7
 208:	97 b9       	out	0x07, r25	; 7
	PORTB = 0xff;
 20a:	85 b9       	out	0x05, r24	; 5
	
	EICRA |= (1 << ISC01);
 20c:	e9 e6       	ldi	r30, 0x69	; 105
 20e:	f0 e0       	ldi	r31, 0x00	; 0
 210:	80 81       	ld	r24, Z
 212:	82 60       	ori	r24, 0x02	; 2
 214:	80 83       	st	Z, r24
	EIMSK |= (1 << INT0)|(1 << INT1);
 216:	8d b3       	in	r24, 0x1d	; 29
 218:	83 60       	ori	r24, 0x03	; 3
 21a:	8d bb       	out	0x1d, r24	; 29
	
	sei();
 21c:	78 94       	sei
	inicializa();
 21e:	0e 94 60 00 	call	0xc0	; 0xc0 <inicializa>
 222:	ff cf       	rjmp	.-2      	; 0x222 <main+0x2e>

00000224 <_exit>:
 224:	f8 94       	cli

00000226 <__stop_program>:
 226:	ff cf       	rjmp	.-2      	; 0x226 <__stop_program>
